(lp0
Vpoi
p1
aVsalary
p2
aVto_messages
p3
aVdeferral_payments
p4
aVtotal_payments
p5
aVexercised_stock_options
p6
aVbonus
p7
aVrestricted_stock
p8
aVshared_receipt_with_poi
p9
aVexpenses
p10
aVfrom_messages
p11
aVother
p12
aVlong_term_incentive
p13
aVfracion_msgs_to_poi
p14
aVfracion_msgs_from_poi
p15
a.